target datalayout = "e-m:e-p270:32:32-p271:32:32-p272:64:64-i64:64-i128:128-f80:128-n8:16:32:64-S128"
target triple = "x86_64-pc-linux-gnu"

%"class.nanobind::handle" = type { ptr }
%class.anon.67 = type { i8 }
%"struct.nanobind::detail::tuple.69" = type { %"struct.nanobind::detail::tuple.70", %"class.nanobind::detail::type_caster.71" }
%"struct.nanobind::detail::tuple.70" = type { %"class.nanobind::detail::type_caster.71" }
%"class.nanobind::detail::type_caster.71" = type { %"class.nanobind::detail::duration_caster.72" }
%"class.nanobind::detail::duration_caster.72" = type { %"class.std::chrono::duration.73" }
%"class.std::chrono::duration.73" = type { float }

; Function Attrs: mustprogress nounwind optsize uwtable
define linkonce_odr void @_ZNSt6chrono8durationIfSt5ratioILl1ELl1EEEC2IfvEERKT_(ptr noundef nonnull align 4 dereferenceable(4) %0, ptr noundef nonnull align 4 dereferenceable(4) %1) unnamed_addr #8 comdat align 2 {
  %3 = alloca ptr, align 8
  %4 = alloca ptr, align 8
  store ptr %0, ptr %3, align 8, !tbaa !230
  store ptr %1, ptr %4, align 8, !tbaa !232
  %5 = load ptr, ptr %3, align 8
  %6 = getelementptr inbounds nuw %"class.std::chrono::duration.73", ptr %5, i32 0, i32 0
  %7 = load ptr, ptr %4, align 8, !tbaa !232
  %8 = load float, ptr %7, align 4, !tbaa !224
  store float %8, ptr %6, align 4, !tbaa !234
  ret void
}

; Function Attrs: mustprogress nounwind optsize uwtable
define linkonce_odr noundef float @_ZNKSt6chrono8durationIfSt5ratioILl1ELl1EEE5countEv(ptr noundef nonnull align 4 dereferenceable(4) %0) #8 comdat align 2 {
  %2 = alloca ptr, align 8
  store ptr %0, ptr %2, align 8, !tbaa !230
  %3 = load ptr, ptr %2, align 8
  %4 = getelementptr inbounds nuw %"class.std::chrono::duration.73", ptr %3, i32 0, i32 0
  %5 = load float, ptr %4, align 4, !tbaa !234
  ret float %5
}

; Function Attrs: mustprogress optsize uwtable
define linkonce_odr float @_ZNSt6chronomiIfSt5ratioILl1ELl1EEfS2_EENSt11common_typeIJNS_8durationIT_T0_EENS4_IT1_T2_EEEE4typeERKS7_RKSA_(ptr noundef nonnull align 4 dereferenceable(4) %0, ptr noundef nonnull align 4 dereferenceable(4) %1) #0 comdat {
  %3 = alloca %"class.std::chrono::duration.73", align 4
  %4 = alloca ptr, align 8
  %5 = alloca ptr, align 8
  %6 = alloca float, align 4
  %7 = alloca %"class.std::chrono::duration.73", align 4
  %8 = alloca %"class.std::chrono::duration.73", align 4
  store ptr %0, ptr %4, align 8, !tbaa !230
  store ptr %1, ptr %5, align 8, !tbaa !230
  call void @llvm.lifetime.start.p0(i64 4, ptr %6) #16
  call void @llvm.lifetime.start.p0(i64 4, ptr %7) #16
  %9 = load ptr, ptr %4, align 8, !tbaa !230
  call void @llvm.memcpy.p0.p0.i64(ptr align 4 %7, ptr align 4 %9, i64 4, i1 false), !tbaa.struct !223
  %10 = call noundef float @_ZNKSt6chrono8durationIfSt5ratioILl1ELl1EEE5countEv(ptr noundef nonnull align 4 dereferenceable(4) %7) #15
  call void @llvm.lifetime.start.p0(i64 4, ptr %8) #16
  %11 = load ptr, ptr %5, align 8, !tbaa !230
  call void @llvm.memcpy.p0.p0.i64(ptr align 4 %8, ptr align 4 %11, i64 4, i1 false), !tbaa.struct !223
  %12 = call noundef float @_ZNKSt6chrono8durationIfSt5ratioILl1ELl1EEE5countEv(ptr noundef nonnull align 4 dereferenceable(4) %8) #15
  %13 = fsub float %10, %12
  store float %13, ptr %6, align 4, !tbaa !224
  call void @_ZNSt6chrono8durationIfSt5ratioILl1ELl1EEEC2IfvEERKT_(ptr noundef nonnull align 4 dereferenceable(4) %3, ptr noundef nonnull align 4 dereferenceable(4) %6) #15
  call void @llvm.lifetime.end.p0(i64 4, ptr %8) #16
  call void @llvm.lifetime.end.p0(i64 4, ptr %7) #16
  call void @llvm.lifetime.end.p0(i64 4, ptr %6) #16
  %14 = getelementptr inbounds nuw %"class.std::chrono::duration.73", ptr %3, i32 0, i32 0
  %15 = load float, ptr %14, align 4
  ret float %15
}

; Function Attrs: alwaysinline mustprogress nounwind optsize uwtable
define linkonce_odr hidden noundef nonnull align 4 dereferenceable(4) ptr @_ZN8nanobind6detail5tupleIJNS0_11type_casterINSt6chrono8durationIfSt5ratioILl1ELl1EEEEiEEEE3getILm0EEERDav(ptr noundef nonnull align 4 dereferenceable(4) %0) #5 comdat align 2 {
  %2 = alloca ptr, align 8
  store ptr %0, ptr %2, align 8, !tbaa !236
  %3 = load ptr, ptr %2, align 8
  %4 = getelementptr inbounds nuw %"struct.nanobind::detail::tuple.70", ptr %3, i32 0, i32 0
  ret ptr %4
}

; Function Attrs: alwaysinline mustprogress nounwind optsize uwtable
define linkonce_odr hidden noundef ptr @_ZNK8nanobind6handle3ptrEv(ptr noundef nonnull align 8 dereferenceable(8) %0) #5 comdat align 2 {
  %2 = alloca ptr, align 8
  store ptr %0, ptr %2, align 8, !tbaa !12
  %3 = load ptr, ptr %2, align 8
  %4 = getelementptr inbounds nuw %"class.nanobind::handle", ptr %3, i32 0, i32 0
  %5 = load ptr, ptr %4, align 8, !tbaa !14
  ret ptr %5
}

; Function Attrs: inlinehint mustprogress optsize uwtable
define internal float @"_ZZL29nanobind_init_test_chrono_extRN8nanobind7module_EENK3$_7clENSt6chrono8durationIfSt5ratioILl1ELl1EEEES7_"(ptr noundef nonnull align 1 dereferenceable(1) %0, float %1, float %2) #9 align 2 {
  %4 = alloca %"class.std::chrono::duration.73", align 4
  %5 = alloca %"class.std::chrono::duration.73", align 4
  %6 = alloca %"class.std::chrono::duration.73", align 4
  %7 = alloca ptr, align 8
  %8 = getelementptr inbounds nuw %"class.std::chrono::duration.73", ptr %5, i32 0, i32 0
  store float %1, ptr %8, align 4
  %9 = getelementptr inbounds nuw %"class.std::chrono::duration.73", ptr %6, i32 0, i32 0
  store float %2, ptr %9, align 4
  store ptr %0, ptr %7, align 8, !tbaa !28
  %10 = call float @_ZNSt6chronomiIfSt5ratioILl1ELl1EEfS2_EENSt11common_typeIJNS_8durationIT_T0_EENS4_IT1_T2_EEEE4typeERKS7_RKSA_(ptr noundef nonnull align 4 dereferenceable(4) %5, ptr noundef nonnull align 4 dereferenceable(4) %6) #15
  %11 = getelementptr inbounds nuw %"class.std::chrono::duration.73", ptr %4, i32 0, i32 0
  store float %10, ptr %11, align 4
  %12 = getelementptr inbounds nuw %"class.std::chrono::duration.73", ptr %4, i32 0, i32 0
  %13 = load float, ptr %12, align 4
  ret float %13
}

; Function Attrs: mustprogress nounwind optsize uwtable
define linkonce_odr hidden noundef nonnull align 4 dereferenceable(4) ptr @_ZN8nanobind6detail15duration_casterINSt6chrono8durationIfSt5ratioILl1ELl1EEEEEcvOS6_Ev(ptr noundef nonnull align 4 dereferenceable(4) %0) #8 comdat align 2 {
  %2 = alloca ptr, align 8
  store ptr %0, ptr %2, align 8, !tbaa !228
  %3 = load ptr, ptr %2, align 8
  %4 = getelementptr inbounds nuw %"class.nanobind::detail::duration_caster.72", ptr %3, i32 0, i32 0
  ret ptr %4
}

; Function Attrs: alwaysinline mustprogress optsize uwtable
define linkonce_odr hidden noundef nonnull align 4 dereferenceable(4) ptr @_ZN8nanobind6detail5tupleIJNS0_11type_casterINSt6chrono8durationIfSt5ratioILl1ELl1EEEEiEES8_EE3getILm1EEERDav(ptr noundef nonnull align 4 dereferenceable(8) %0) #3 comdat align 2 {
  %2 = alloca ptr, align 8
  store ptr %0, ptr %2, align 8, !tbaa !226
  %3 = load ptr, ptr %2, align 8
  %4 = call noundef nonnull align 4 dereferenceable(4) ptr @_ZN8nanobind6detail5tupleIJNS0_11type_casterINSt6chrono8durationIfSt5ratioILl1ELl1EEEEiEEEE3getILm0EEERDav(ptr noundef nonnull align 4 dereferenceable(4) %3) #15
  ret ptr %4
}

; Function Attrs: alwaysinline mustprogress nounwind optsize uwtable
define linkonce_odr hidden void @_ZN8nanobind6handleC2EPK7_object(ptr noundef nonnull align 8 dereferenceable(8) %0, ptr noundef %1) unnamed_addr #5 comdat align 2 {
  %3 = alloca ptr, align 8
  %4 = alloca ptr, align 8
  store ptr %0, ptr %3, align 8, !tbaa !12
  store ptr %1, ptr %4, align 8, !tbaa !3
  %5 = load ptr, ptr %3, align 8
  %6 = getelementptr inbounds nuw %"class.nanobind::handle", ptr %5, i32 0, i32 0
  %7 = load ptr, ptr %4, align 8, !tbaa !3
  store ptr %7, ptr %6, align 8, !tbaa !14
  ret void
}

; Function Attrs: alwaysinline mustprogress nounwind optsize uwtable
define linkonce_odr hidden noundef nonnull align 4 dereferenceable(4) ptr @_ZN8nanobind6detail5tupleIJNS0_11type_casterINSt6chrono8durationIfSt5ratioILl1ELl1EEEEiEES8_EE3getILm0EEERDav(ptr noundef nonnull align 4 dereferenceable(8) %0) #5 comdat align 2 {
  %2 = alloca ptr, align 8
  store ptr %0, ptr %2, align 8, !tbaa !226
  %3 = load ptr, ptr %2, align 8
  %4 = getelementptr inbounds nuw %"struct.nanobind::detail::tuple.69", ptr %3, i32 0, i32 1
  ret ptr %4
}

; Function Attrs: alwaysinline mustprogress optsize uwtable
define internal noundef ptr @"_ZZN8nanobind6detail11func_createILb0ELb1EZL29nanobind_init_test_chrono_extRNS_7module_EE3$_7NSt6chrono8durationIfSt5ratioILl1ELl1EEEEJS9_S9_EJLm0ELm1EEJNS_5scopeENS_4nameEEEEP7_objectOT1_PFT2_DpT3_ESt16integer_sequenceImJXspT4_EEEDpRKT5_ENKUlPvPSD_PhNS_9rv_policyEPNS0_12cleanup_listEE_clESR_SS_ST_SU_SW_"(ptr noundef nonnull align 1 dereferenceable(1) %0, ptr noundef %1, ptr noundef %2, ptr noundef %3, i32 noundef %4, ptr noundef %5) #3 align 2 {
  %7 = alloca ptr, align 8
  %8 = alloca ptr, align 8
  %9 = alloca ptr, align 8
  %10 = alloca ptr, align 8
  %11 = alloca ptr, align 8
  %12 = alloca i32, align 4
  %13 = alloca ptr, align 8
  %14 = alloca ptr, align 8
  %15 = alloca %"struct.nanobind::detail::tuple.69", align 4
  %16 = alloca %"class.nanobind::handle", align 8
  %17 = alloca %"class.nanobind::handle", align 8
  %18 = alloca i32, align 4
  %19 = alloca ptr, align 8
  %20 = alloca %"class.nanobind::handle", align 8
  %21 = alloca %"class.std::chrono::duration.73", align 4
  %22 = alloca %"class.std::chrono::duration.73", align 4
  %23 = alloca %"class.std::chrono::duration.73", align 4
  store ptr %0, ptr %8, align 8, !tbaa !28
  store ptr %1, ptr %9, align 8, !tbaa !28
  store ptr %2, ptr %10, align 8, !tbaa !106
  store ptr %3, ptr %11, align 8, !tbaa !26
  store i32 %4, ptr %12, align 4, !tbaa !108
  store ptr %5, ptr %13, align 8, !tbaa !110
  call void @llvm.lifetime.start.p0(i64 8, ptr %14) #16
  %24 = load ptr, ptr %9, align 8, !tbaa !28
  store ptr %24, ptr %14, align 8, !tbaa !219
  call void @llvm.lifetime.start.p0(i64 8, ptr %15) #16
  %25 = call noundef nonnull align 4 dereferenceable(4) ptr @_ZN8nanobind6detail5tupleIJNS0_11type_casterINSt6chrono8durationIfSt5ratioILl1ELl1EEEEiEES8_EE3getILm0EEERDav(ptr noundef nonnull align 4 dereferenceable(8) %15) #15
  %26 = load ptr, ptr %10, align 8, !tbaa !106
  %27 = getelementptr inbounds nuw ptr, ptr %26, i64 0
  %28 = load ptr, ptr %27, align 8, !tbaa !3
  call void @_ZN8nanobind6handleC2EPK7_object(ptr noundef nonnull align 8 dereferenceable(8) %16, ptr noundef %28) #15
  %29 = load ptr, ptr %11, align 8, !tbaa !26
  %30 = getelementptr inbounds nuw i8, ptr %29, i64 0
  %31 = load i8, ptr %30, align 1, !tbaa !44
  %32 = load ptr, ptr %13, align 8, !tbaa !110
  %33 = getelementptr inbounds nuw %"class.nanobind::handle", ptr %16, i32 0, i32 0
  %34 = load ptr, ptr %33, align 8
  %35 = call noundef zeroext i1 @_ZN8nanobind6detail15duration_casterINSt6chrono8durationIfSt5ratioILl1ELl1EEEEE11from_pythonENS_6handleEhPNS0_12cleanup_listE(ptr noundef nonnull align 4 dereferenceable(4) %25, ptr %34, i8 noundef zeroext %31, ptr noundef %32) #17
  br i1 %35, label %36, label %48

36:                                               ; preds = %6
  %37 = call noundef nonnull align 4 dereferenceable(4) ptr @_ZN8nanobind6detail5tupleIJNS0_11type_casterINSt6chrono8durationIfSt5ratioILl1ELl1EEEEiEES8_EE3getILm1EEERDav(ptr noundef nonnull align 4 dereferenceable(8) %15) #15
  %38 = load ptr, ptr %10, align 8, !tbaa !106
  %39 = getelementptr inbounds nuw ptr, ptr %38, i64 1
  %40 = load ptr, ptr %39, align 8, !tbaa !3
  call void @_ZN8nanobind6handleC2EPK7_object(ptr noundef nonnull align 8 dereferenceable(8) %17, ptr noundef %40) #15
  %41 = load ptr, ptr %11, align 8, !tbaa !26
  %42 = getelementptr inbounds nuw i8, ptr %41, i64 1
  %43 = load i8, ptr %42, align 1, !tbaa !44
  %44 = load ptr, ptr %13, align 8, !tbaa !110
  %45 = getelementptr inbounds nuw %"class.nanobind::handle", ptr %17, i32 0, i32 0
  %46 = load ptr, ptr %45, align 8
  %47 = call noundef zeroext i1 @_ZN8nanobind6detail15duration_casterINSt6chrono8durationIfSt5ratioILl1ELl1EEEEE11from_pythonENS_6handleEhPNS0_12cleanup_listE(ptr noundef nonnull align 4 dereferenceable(4) %37, ptr %46, i8 noundef zeroext %43, ptr noundef %44) #17
  br i1 %47, label %49, label %48

48:                                               ; preds = %36, %6
  store ptr inttoptr (i64 1 to ptr), ptr %7, align 8
  store i32 1, ptr %18, align 4
  br label %67

49:                                               ; preds = %36
  call void @llvm.lifetime.start.p0(i64 8, ptr %19) #16
  call void @llvm.lifetime.start.p0(i64 8, ptr %20) #16
  call void @llvm.lifetime.start.p0(i64 4, ptr %21) #16
  %50 = load ptr, ptr %14, align 8, !tbaa !219
  %51 = call noundef nonnull align 4 dereferenceable(4) ptr @_ZN8nanobind6detail5tupleIJNS0_11type_casterINSt6chrono8durationIfSt5ratioILl1ELl1EEEEiEES8_EE3getILm0EEERDav(ptr noundef nonnull align 4 dereferenceable(8) %15) #15
  %52 = call noundef nonnull align 4 dereferenceable(4) ptr @_ZN8nanobind6detail15duration_casterINSt6chrono8durationIfSt5ratioILl1ELl1EEEEEcvOS6_Ev(ptr noundef nonnull align 4 dereferenceable(4) %51) #15
  call void @llvm.memcpy.p0.p0.i64(ptr align 4 %22, ptr align 4 %52, i64 4, i1 false), !tbaa.struct !223
  %53 = call noundef nonnull align 4 dereferenceable(4) ptr @_ZN8nanobind6detail5tupleIJNS0_11type_casterINSt6chrono8durationIfSt5ratioILl1ELl1EEEEiEES8_EE3getILm1EEERDav(ptr noundef nonnull align 4 dereferenceable(8) %15) #15
  %54 = call noundef nonnull align 4 dereferenceable(4) ptr @_ZN8nanobind6detail15duration_casterINSt6chrono8durationIfSt5ratioILl1ELl1EEEEEcvOS6_Ev(ptr noundef nonnull align 4 dereferenceable(4) %53) #15
  call void @llvm.memcpy.p0.p0.i64(ptr align 4 %23, ptr align 4 %54, i64 4, i1 false), !tbaa.struct !223
  %55 = getelementptr inbounds nuw %"class.std::chrono::duration.73", ptr %22, i32 0, i32 0
  %56 = load float, ptr %55, align 4
  %57 = getelementptr inbounds nuw %"class.std::chrono::duration.73", ptr %23, i32 0, i32 0
  %58 = load float, ptr %57, align 4
  %59 = call float @"_ZZL29nanobind_init_test_chrono_extRN8nanobind7module_EENK3$_7clENSt6chrono8durationIfSt5ratioILl1ELl1EEEES7_"(ptr noundef nonnull align 1 dereferenceable(1) %50, float %56, float %58) #15
  %60 = getelementptr inbounds nuw %"class.std::chrono::duration.73", ptr %21, i32 0, i32 0
  store float %59, ptr %60, align 4
  %61 = load i32, ptr %12, align 4, !tbaa !108
  %62 = load ptr, ptr %13, align 8, !tbaa !110
  %63 = call ptr @_ZN8nanobind6detail15duration_casterINSt6chrono8durationIfSt5ratioILl1ELl1EEEEE8from_cppERKS6_NS_9rv_policyEPNS0_12cleanup_listE(ptr noundef nonnull align 4 dereferenceable(4) %21, i32 noundef %61, ptr noundef %62) #17
  %64 = getelementptr inbounds nuw %"class.nanobind::handle", ptr %20, i32 0, i32 0
  store ptr %63, ptr %64, align 8
  %65 = call noundef ptr @_ZNK8nanobind6handle3ptrEv(ptr noundef nonnull align 8 dereferenceable(8) %20) #15
  store ptr %65, ptr %19, align 8, !tbaa !3
  call void @llvm.lifetime.end.p0(i64 4, ptr %21) #16
  call void @llvm.lifetime.end.p0(i64 8, ptr %20) #16
  %66 = load ptr, ptr %19, align 8, !tbaa !3
  store ptr %66, ptr %7, align 8
  store i32 1, ptr %18, align 4
  call void @llvm.lifetime.end.p0(i64 8, ptr %19) #16
  br label %67

67:                                               ; preds = %49, %48
  call void @llvm.lifetime.end.p0(i64 8, ptr %15) #16
  call void @llvm.lifetime.end.p0(i64 8, ptr %14) #16
  %68 = load ptr, ptr %7, align 8
  ret ptr %68
}

; Function Attrs: inlinehint mustprogress optsize uwtable
define internal noundef ptr @"_ZZN8nanobind6detail11func_createILb0ELb1EZL29nanobind_init_test_chrono_extRNS_7module_EE3$_7NSt6chrono8durationIfSt5ratioILl1ELl1EEEEJS9_S9_EJLm0ELm1EEJNS_5scopeENS_4nameEEEEP7_objectOT1_PFT2_DpT3_ESt16integer_sequenceImJXspT4_EEEDpRKT5_ENUlPvPSD_PhNS_9rv_policyEPNS0_12cleanup_listEE_8__invokeESR_SS_ST_SU_SW_"(ptr noundef %0, ptr noundef %1, ptr noundef %2, i32 noundef %3, ptr noundef %4) #9 align 2 {
  %6 = alloca ptr, align 8
  %7 = alloca ptr, align 8
  %8 = alloca ptr, align 8
  %9 = alloca i32, align 4
  %10 = alloca ptr, align 8
  %11 = alloca %class.anon.67, align 1
  store ptr %0, ptr %6, align 8, !tbaa !28
  store ptr %1, ptr %7, align 8, !tbaa !106
  store ptr %2, ptr %8, align 8, !tbaa !26
  store i32 %3, ptr %9, align 4, !tbaa !108
  store ptr %4, ptr %10, align 8, !tbaa !110
  %12 = load ptr, ptr %6, align 8, !tbaa !28
  %13 = load ptr, ptr %7, align 8, !tbaa !106
  %14 = load ptr, ptr %8, align 8, !tbaa !26
  %15 = load i32, ptr %9, align 4, !tbaa !108
  %16 = load ptr, ptr %10, align 8, !tbaa !110
  %17 = call noundef ptr @"_ZZN8nanobind6detail11func_createILb0ELb1EZL29nanobind_init_test_chrono_extRNS_7module_EE3$_7NSt6chrono8durationIfSt5ratioILl1ELl1EEEEJS9_S9_EJLm0ELm1EEJNS_5scopeENS_4nameEEEEP7_objectOT1_PFT2_DpT3_ESt16integer_sequenceImJXspT4_EEEDpRKT5_ENKUlPvPSD_PhNS_9rv_policyEPNS0_12cleanup_listEE_clESR_SS_ST_SU_SW_"(ptr noundef nonnull align 1 dereferenceable(1) %11, ptr noundef %12, ptr noundef %13, ptr noundef %14, i32 noundef %15, ptr noundef %16) #15
  ret ptr %17
}