; Function Attrs: inlinehint mustprogress nounwind optsize uwtable
define internal noundef ptr @"_ZZN8nanobind6detail11func_createILb0ELb1EZL29nanobind_init_test_chrono_extRNS_7module_EE3$_7NSt6chrono8durationIfSt5ratioILl1ELl1EEEEJS9_S9_EJLm0ELm1EEJNS_5scopeENS_4nameEEEEP7_objectOT1_PFT2_DpT3_ESt16integer_sequenceImJXspT4_EEEDpRKT5_ENUlPvPSD_PhNS_9rv_policyEPNS0_12cleanup_listEE_8__invokeESR_SS_ST_SU_SW_"(ptr readnone captures(none) %0, ptr noundef readonly captures(none) %1, ptr noundef readonly captures(none) %2, i32 noundef %3, ptr noundef %4) #8 align 2 {
  %6 = alloca %"struct.nanobind::detail::tuple.69", align 4
  %7 = alloca %"class.std::chrono::duration.73", align 4
  call void @llvm.lifetime.start.p0(i64 8, ptr nonnull %6) #16
  %8 = getelementptr inbounds nuw i8, ptr %6, i64 4
  %9 = load ptr, ptr %1, align 8, !tbaa !68
  %10 = load i8, ptr %2, align 1, !tbaa !34
  %11 = call noundef zeroext i1 @_ZN8nanobind6detail15duration_casterINSt6chrono8durationIfSt5ratioILl1ELl1EEEEE11from_pythonENS_6handleEhPNS0_12cleanup_listE(ptr noundef nonnull align 4 dereferenceable(4) %8, ptr %9, i8 noundef zeroext %10, ptr noundef %4) #17
  br i1 %11, label %12, label %"_ZZN8nanobind6detail11func_createILb0ELb1EZL29nanobind_init_test_chrono_extRNS_7module_EE3$_7NSt6chrono8durationIfSt5ratioILl1ELl1EEEEJS9_S9_EJLm0ELm1EEJNS_5scopeENS_4nameEEEEP7_objectOT1_PFT2_DpT3_ESt16integer_sequenceImJXspT4_EEEDpRKT5_ENKUlPvPSD_PhNS_9rv_policyEPNS0_12cleanup_listEE_clESR_SS_ST_SU_SW_.exit"

12:                                               ; preds = %5
  %13 = getelementptr inbounds nuw i8, ptr %1, i64 8
  %14 = load ptr, ptr %13, align 8, !tbaa !68
  %15 = getelementptr inbounds nuw i8, ptr %2, i64 1
  %16 = load i8, ptr %15, align 1, !tbaa !34
  %17 = call noundef zeroext i1 @_ZN8nanobind6detail15duration_casterINSt6chrono8durationIfSt5ratioILl1ELl1EEEEE11from_pythonENS_6handleEhPNS0_12cleanup_listE(ptr noundef nonnull align 4 dereferenceable(4) %6, ptr %14, i8 noundef zeroext %16, ptr noundef %4) #17
  br i1 %17, label %18, label %"_ZZN8nanobind6detail11func_createILb0ELb1EZL29nanobind_init_test_chrono_extRNS_7module_EE3$_7NSt6chrono8durationIfSt5ratioILl1ELl1EEEEJS9_S9_EJLm0ELm1EEJNS_5scopeENS_4nameEEEEP7_objectOT1_PFT2_DpT3_ESt16integer_sequenceImJXspT4_EEEDpRKT5_ENKUlPvPSD_PhNS_9rv_policyEPNS0_12cleanup_listEE_clESR_SS_ST_SU_SW_.exit"

18:                                               ; preds = %12
  call void @llvm.lifetime.start.p0(i64 4, ptr nonnull %7) #16
  %.sroa.01.0.copyload.i = load float, ptr %8, align 4, !tbaa !101
  %.sroa.0.0.copyload.i = load float, ptr %6, align 4, !tbaa !101
  %19 = fsub float %.sroa.01.0.copyload.i, %.sroa.0.0.copyload.i
  store float %19, ptr %7, align 4
  %20 = call ptr @_ZN8nanobind6detail15duration_casterINSt6chrono8durationIfSt5ratioILl1ELl1EEEEE8from_cppERKS6_NS_9rv_policyEPNS0_12cleanup_listE(ptr noundef nonnull align 4 dereferenceable(4) %7, i32 noundef %3, ptr noundef %4) #17
  call void @llvm.lifetime.end.p0(i64 4, ptr nonnull %7) #16
  br label %"_ZZN8nanobind6detail11func_createILb0ELb1EZL29nanobind_init_test_chrono_extRNS_7module_EE3$_7NSt6chrono8durationIfSt5ratioILl1ELl1EEEEJS9_S9_EJLm0ELm1EEJNS_5scopeENS_4nameEEEEP7_objectOT1_PFT2_DpT3_ESt16integer_sequenceImJXspT4_EEEDpRKT5_ENKUlPvPSD_PhNS_9rv_policyEPNS0_12cleanup_listEE_clESR_SS_ST_SU_SW_.exit"

"_ZZN8nanobind6detail11func_createILb0ELb1EZL29nanobind_init_test_chrono_extRNS_7module_EE3$_7NSt6chrono8durationIfSt5ratioILl1ELl1EEEEJS9_S9_EJLm0ELm1EEJNS_5scopeENS_4nameEEEEP7_objectOT1_PFT2_DpT3_ESt16integer_sequenceImJXspT4_EEEDpRKT5_ENKUlPvPSD_PhNS_9rv_policyEPNS0_12cleanup_listEE_clESR_SS_ST_SU_SW_.exit": ; preds = %5, %12, %18
  %.0.i = phi ptr [ %20, %18 ], [ inttoptr (i64 1 to ptr), %12 ], [ inttoptr (i64 1 to ptr), %5 ]
  call void @llvm.lifetime.end.p0(i64 8, ptr nonnull %6) #16
  ret ptr %.0.i
}